; Function Attrs: nounwind uwtable
define internal range(i32 -1094995529, 1) i32 @ipvideo_decode_block_opcode_0x5(ptr noundef captures(none) %0, ptr noundef readonly captures(none) %1) #1 {
  %3 = getelementptr inbounds nuw i8, ptr %0, i64 488
  %4 = getelementptr inbounds nuw i8, ptr %0, i64 496
  %5 = load ptr, ptr %4, align 8, !tbaa !60
  %6 = load ptr, ptr %3, align 8, !tbaa !58
  %7 = ptrtoint ptr %5 to i64
  %8 = ptrtoint ptr %6 to i64
  %9 = sub i64 %7, %8
  %10 = icmp slt i64 %9, 1
  br i1 %10, label %bytestream2_get_byte.exit, label %11

11:                                               ; preds = %2
  %12 = getelementptr inbounds nuw i8, ptr %6, i64 1
  store ptr %12, ptr %3, align 8, !tbaa !53
  %13 = load i8, ptr %6, align 1, !tbaa !54
  %14 = sext i8 %13 to i32
  %.pre = ptrtoint ptr %12 to i64
  br label %bytestream2_get_byte.exit

bytestream2_get_byte.exit:                        ; preds = %2, %11
  %.pre-phi = phi i64 [ %.pre, %11 ], [ %7, %2 ]
  %15 = phi ptr [ %12, %11 ], [ %5, %2 ]
  %.0.i = phi i32 [ %14, %11 ], [ 0, %2 ]
  %16 = sub i64 %7, %.pre-phi
  %17 = icmp slt i64 %16, 1
  br i1 %17, label %18, label %19

18:                                               ; preds = %bytestream2_get_byte.exit
  store ptr %5, ptr %3, align 8, !tbaa !58
  br label %bytestream2_get_byte.exit8

19:                                               ; preds = %bytestream2_get_byte.exit
  %20 = getelementptr inbounds nuw i8, ptr %15, i64 1
  store ptr %20, ptr %3, align 8, !tbaa !53
  %21 = load i8, ptr %15, align 1, !tbaa !54
  %22 = sext i8 %21 to i32
  br label %bytestream2_get_byte.exit8

bytestream2_get_byte.exit8:                       ; preds = %18, %19
  %.0.i7 = phi i32 [ 0, %18 ], [ %22, %19 ]
  %23 = getelementptr inbounds nuw i8, ptr %0, i64 432
  %24 = load ptr, ptr %23, align 8, !tbaa !37
  %25 = tail call fastcc i32 @copy_from(ptr noundef nonnull %0, ptr noundef %24, ptr noundef %1, i32 noundef %.0.i, i32 noundef %.0.i7)
  ret i32 %25
}